target datalayout = "e-m:e-p270:32:32-p271:32:32-p272:64:64-i64:64-i128:128-f80:128-n8:16:32:64-S128"
target triple = "x86_64-pc-linux-gnu"

; Function Attrs: nounwind uwtable
define hidden zeroext i1 @Curl_compareheader(ptr noundef %0, ptr noundef %1, i64 noundef %2, ptr noundef %3, i64 noundef %4) #0 {
  %6 = alloca i1, align 1
  %7 = alloca ptr, align 8
  %8 = alloca ptr, align 8
  %9 = alloca i64, align 8
  %10 = alloca ptr, align 8
  %11 = alloca i64, align 8
  %12 = alloca i64, align 8
  %13 = alloca ptr, align 8
  %14 = alloca ptr, align 8
  %15 = alloca i32, align 4
  store ptr %0, ptr %7, align 8, !tbaa !82
  store ptr %1, ptr %8, align 8, !tbaa !82
  store i64 %2, ptr %9, align 8, !tbaa !119
  store ptr %3, ptr %10, align 8, !tbaa !82
  store i64 %4, ptr %11, align 8, !tbaa !119
  call void @llvm.lifetime.start.p0(i64 8, ptr %12) #7
  call void @llvm.lifetime.start.p0(i64 8, ptr %13) #7
  call void @llvm.lifetime.start.p0(i64 8, ptr %14) #7
  br label %16

16:                                               ; preds = %5
  br label %17

17:                                               ; preds = %16
  br label %18

18:                                               ; preds = %17
  br label %19

19:                                               ; preds = %18
  br label %20

20:                                               ; preds = %19
  br label %21

21:                                               ; preds = %20
  br label %22

22:                                               ; preds = %21
  br label %23

23:                                               ; preds = %22
  br label %24

24:                                               ; preds = %23
  br label %25

25:                                               ; preds = %24
  br label %26

26:                                               ; preds = %25
  br label %27

27:                                               ; preds = %26
  %28 = load ptr, ptr %7, align 8, !tbaa !82
  %29 = load ptr, ptr %8, align 8, !tbaa !82
  %30 = load i64, ptr %9, align 8, !tbaa !119
  %31 = call i32 @curl_strnequal(ptr noundef %28, ptr noundef %29, i64 noundef %30)
  %32 = icmp ne i32 %31, 0
  br i1 %32, label %34, label %33

33:                                               ; preds = %27
  store i1 false, ptr %6, align 1
  store i32 1, ptr %15, align 4
  br label %110

34:                                               ; preds = %27
  %35 = load ptr, ptr %7, align 8, !tbaa !82
  %36 = load i64, ptr %9, align 8, !tbaa !119
  %37 = getelementptr inbounds nuw i8, ptr %35, i64 %36
  store ptr %37, ptr %13, align 8, !tbaa !82
  br label %38

38:                                               ; preds = %69, %34
  %39 = load ptr, ptr %13, align 8, !tbaa !82
  %40 = load i8, ptr %39, align 1, !tbaa !100
  %41 = sext i8 %40 to i32
  %42 = icmp ne i32 %41, 0
  br i1 %42, label %43, label %67

43:                                               ; preds = %38
  %44 = load ptr, ptr %13, align 8, !tbaa !82
  %45 = load i8, ptr %44, align 1, !tbaa !100
  %46 = sext i8 %45 to i32
  %47 = icmp eq i32 %46, 32
  br i1 %47, label %65, label %48

48:                                               ; preds = %43
  %49 = load ptr, ptr %13, align 8, !tbaa !82
  %50 = load i8, ptr %49, align 1, !tbaa !100
  %51 = sext i8 %50 to i32
  %52 = icmp eq i32 %51, 9
  br i1 %52, label %65, label %53

53:                                               ; preds = %48
  %54 = load ptr, ptr %13, align 8, !tbaa !82
  %55 = load i8, ptr %54, align 1, !tbaa !100
  %56 = sext i8 %55 to i32
  %57 = icmp sge i32 %56, 10
  br i1 %57, label %58, label %63

58:                                               ; preds = %53
  %59 = load ptr, ptr %13, align 8, !tbaa !82
  %60 = load i8, ptr %59, align 1, !tbaa !100
  %61 = sext i8 %60 to i32
  %62 = icmp sle i32 %61, 13
  br label %63

63:                                               ; preds = %58, %53
  %64 = phi i1 [ false, %53 ], [ %62, %58 ]
  br label %65

65:                                               ; preds = %63, %48, %43
  %66 = phi i1 [ true, %48 ], [ true, %43 ], [ %64, %63 ]
  br label %67

67:                                               ; preds = %65, %38
  %68 = phi i1 [ false, %38 ], [ %66, %65 ]
  br i1 %68, label %69, label %72

69:                                               ; preds = %67
  %70 = load ptr, ptr %13, align 8, !tbaa !82
  %71 = getelementptr inbounds nuw i8, ptr %70, i32 1
  store ptr %71, ptr %13, align 8, !tbaa !82
  br label %38, !llvm.loop !174

72:                                               ; preds = %67
  %73 = load ptr, ptr %13, align 8, !tbaa !82
  %74 = call ptr @strchr(ptr noundef %73, i32 noundef 13) #8
  store ptr %74, ptr %14, align 8, !tbaa !82
  %75 = load ptr, ptr %14, align 8, !tbaa !82
  %76 = icmp ne ptr %75, null
  br i1 %76, label %86, label %77

77:                                               ; preds = %72
  %78 = load ptr, ptr %13, align 8, !tbaa !82
  %79 = call ptr @strchr(ptr noundef %78, i32 noundef 10) #8
  store ptr %79, ptr %14, align 8, !tbaa !82
  %80 = load ptr, ptr %14, align 8, !tbaa !82
  %81 = icmp ne ptr %80, null
  br i1 %81, label %85, label %82

82:                                               ; preds = %77
  %83 = load ptr, ptr %13, align 8, !tbaa !82
  %84 = call ptr @strchr(ptr noundef %83, i32 noundef 0) #8
  store ptr %84, ptr %14, align 8, !tbaa !82
  br label %85

85:                                               ; preds = %82, %77
  br label %86

86:                                               ; preds = %85, %72
  %87 = load ptr, ptr %14, align 8, !tbaa !82
  %88 = load ptr, ptr %13, align 8, !tbaa !82
  %89 = ptrtoint ptr %87 to i64
  %90 = ptrtoint ptr %88 to i64
  %91 = sub i64 %89, %90
  store i64 %91, ptr %12, align 8, !tbaa !119
  br label %92

92:                                               ; preds = %104, %86
  %93 = load i64, ptr %12, align 8, !tbaa !119
  %94 = load i64, ptr %11, align 8, !tbaa !119
  %95 = icmp uge i64 %93, %94
  br i1 %95, label %96, label %109

96:                                               ; preds = %92
  %97 = load ptr, ptr %13, align 8, !tbaa !82
  %98 = load ptr, ptr %10, align 8, !tbaa !82
  %99 = load i64, ptr %11, align 8, !tbaa !119
  %100 = call i32 @curl_strnequal(ptr noundef %97, ptr noundef %98, i64 noundef %99)
  %101 = icmp ne i32 %100, 0
  br i1 %101, label %102, label %103

102:                                              ; preds = %96
  store i1 true, ptr %6, align 1
  store i32 1, ptr %15, align 4
  br label %110

103:                                              ; preds = %96
  br label %104

104:                                              ; preds = %103
  %105 = load i64, ptr %12, align 8, !tbaa !119
  %106 = add i64 %105, -1
  store i64 %106, ptr %12, align 8, !tbaa !119
  %107 = load ptr, ptr %13, align 8, !tbaa !82
  %108 = getelementptr inbounds nuw i8, ptr %107, i32 1
  store ptr %108, ptr %13, align 8, !tbaa !82
  br label %92, !llvm.loop !175

109:                                              ; preds = %92
  store i1 false, ptr %6, align 1
  store i32 1, ptr %15, align 4
  br label %110

110:                                              ; preds = %109, %102, %33
  call void @llvm.lifetime.end.p0(i64 8, ptr %14) #7
  call void @llvm.lifetime.end.p0(i64 8, ptr %13) #7
  call void @llvm.lifetime.end.p0(i64 8, ptr %12) #7
  %111 = load i1, ptr %6, align 1
  ret i1 %111
}